; Function Attrs: mustprogress uwtable
define void @_ZN3g2o7cholmod7CholmodC2Ev(ptr noundef nonnull writeonly align 8 captures(none) dereferenceable(8) %0) unnamed_addr #0 align 2 personality ptr @__gxx_personality_v0 {
  tail call void @llvm.experimental.noalias.scope.decl(metadata !3)
  %2 = tail call noalias noundef nonnull dereferenceable(2768) ptr @_Znwm(i64 noundef 2768) #14, !noalias !3
  %3 = getelementptr inbounds nuw i8, ptr %2, i64 2664
  %4 = getelementptr inbounds nuw i8, ptr %2, i64 2752
  store i64 0, ptr %4, align 8, !tbaa !6, !noalias !3
  %5 = getelementptr inbounds nuw i8, ptr %2, i64 2728
  tail call void @llvm.memset.p0.i64(ptr noundef nonnull align 8 dereferenceable(96) %3, i8 0, i64 64, i1 false), !noalias !3
  store i32 1, ptr %5, align 8, !tbaa !14, !noalias !3
  %6 = getelementptr inbounds nuw i8, ptr %2, i64 2732
  store i32 0, ptr %6, align 4, !tbaa !15, !noalias !3
  %7 = getelementptr inbounds nuw i8, ptr %2, i64 2736
  store i32 1, ptr %7, align 8, !tbaa !16, !noalias !3
  %8 = getelementptr inbounds nuw i8, ptr %2, i64 2740
  store i32 0, ptr %8, align 4, !tbaa !17, !noalias !3
  %9 = getelementptr inbounds nuw i8, ptr %2, i64 2744
  store i32 1, ptr %9, align 8, !tbaa !18, !noalias !3
  %10 = getelementptr inbounds nuw i8, ptr %2, i64 2748
  store i32 1, ptr %10, align 4, !tbaa !19, !noalias !3
  %11 = getelementptr inbounds nuw i8, ptr %2, i64 2760
  store ptr null, ptr %11, align 8, !tbaa !20, !noalias !3
  %12 = invoke i32 @cholmod_start(ptr noundef nonnull align 8 dereferenceable(2768) %2)
          to label %_ZSt11make_uniqueIN3g2o7cholmod7Cholmod4ImplEJEENSt8__detail9_MakeUniqIT_E15__single_objectEDpOT0_.exit unwind label %.body.i, !noalias !3

.body.i:                                          ; preds = %1
  %13 = landingpad { ptr, i32 }
          cleanup
  tail call void @_ZN3g2o7cholmod10CholmodExtD2Ev(ptr noundef nonnull align 8 dereferenceable(96) %3) #15, !noalias !3
  tail call void @_ZdlPvm(ptr noundef nonnull %2, i64 noundef 2768) #16, !noalias !3
  resume { ptr, i32 } %13

_ZSt11make_uniqueIN3g2o7cholmod7Cholmod4ImplEJEENSt8__detail9_MakeUniqIT_E15__single_objectEDpOT0_.exit: ; preds = %1
  %14 = getelementptr inbounds nuw i8, ptr %2, i64 168
  store i32 1, ptr %14, align 8, !tbaa !25, !noalias !3
  %15 = getelementptr inbounds nuw i8, ptr %2, i64 316
  store i32 2, ptr %15, align 4, !tbaa !26, !noalias !3
  %16 = getelementptr inbounds nuw i8, ptr %2, i64 48
  store i32 1, ptr %16, align 8, !tbaa !28, !noalias !3
  store ptr %2, ptr %0, align 8, !tbaa !29, !alias.scope !3
  ret void
}